; Function Attrs: mustprogress nofree norecurse nosync nounwind willreturn memory(argmem: read) uwtable
define noundef nonnull align 8 dereferenceable(64) ptr @_ZNK6icu_7520DecimalFormatSymbols28getPatternForCurrencySpacingE16UCurrencySpacingaR10UErrorCode(ptr noundef nonnull readnone align 8 dereferenceable(2883) %this, i32 noundef %type, i8 noundef signext %beforeCurrency, ptr nocapture noundef nonnull readonly align 4 dereferenceable(4) %status) local_unnamed_addr #11 align 2 {
entry:
  %0 = load i32, ptr %status, align 4
  %cmp.i = icmp slt i32 %0, 1
  br i1 %cmp.i, label %if.end, label %if.then

if.then:                                          ; preds = %entry
  %fNoSymbol = getelementptr inbounds i8, ptr %this, i64 1864
  br label %return

if.end:                                           ; preds = %entry
  %tobool2.not = icmp eq i8 %beforeCurrency, 0
  %idxprom4 = sext i32 %type to i64
  br i1 %tobool2.not, label %if.else, label %if.then3

if.then3:                                         ; preds = %if.end
  %currencySpcBeforeSym = getelementptr inbounds i8, ptr %this, i64 2488
  %arrayidx = getelementptr inbounds [3 x %"class.icu_75::UnicodeString"], ptr %currencySpcBeforeSym, i64 0, i64 %idxprom4
  br label %return

if.else:                                          ; preds = %if.end
  %currencySpcAfterSym = getelementptr inbounds i8, ptr %this, i64 2680
  %arrayidx5 = getelementptr inbounds [3 x %"class.icu_75::UnicodeString"], ptr %currencySpcAfterSym, i64 0, i64 %idxprom4
  br label %return

return:                                           ; preds = %if.else, %if.then3, %if.then
  %retval.0 = phi ptr [ %fNoSymbol, %if.then ], [ %arrayidx, %if.then3 ], [ %arrayidx5, %if.else ]
  ret ptr %retval.0
}